target datalayout = "e-m:e-p270:32:32-p271:32:32-p272:64:64-i64:64-i128:128-f80:128-n8:16:32:64-S128"
target triple = "x86_64-pc-linux-gnu"

@cos_tab = internal global [256 x float] zeroinitializer, align 16

; Function Attrs: cold nounwind optsize uwtable
define void @ff_dca_lbr_init_tables() #0 {
  %1 = alloca i32, align 4
  call void @llvm.lifetime.start.p0(i64 4, ptr %1) #12
  store i32 0, ptr %1, align 4, !tbaa !4
  br label %2

2:                                                ; preds = %15, %0
  %3 = load i32, ptr %1, align 4, !tbaa !4
  %4 = icmp slt i32 %3, 256
  br i1 %4, label %5, label %18

5:                                                ; preds = %2
  %6 = load i32, ptr %1, align 4, !tbaa !4
  %7 = sitofp i32 %6 to double
  %8 = fmul nsz double 0x400921FB54442D18, %7
  %9 = fdiv nsz double %8, 1.280000e+02
  %10 = call nsz double @llvm.cos.f64(double %9)
  %11 = fptrunc nsz double %10 to float
  %12 = load i32, ptr %1, align 4, !tbaa !4
  %13 = sext i32 %12 to i64
  %14 = getelementptr inbounds [256 x float], ptr @cos_tab, i64 0, i64 %13
  store float %11, ptr %14, align 4, !tbaa !8
  br label %15

15:                                               ; preds = %5
  %16 = load i32, ptr %1, align 4, !tbaa !4
  %17 = add nsw i32 %16, 1
  store i32 %17, ptr %1, align 4, !tbaa !4
  br label %2, !llvm.loop !10

18:                                               ; preds = %2
  call void @llvm.lifetime.end.p0(i64 4, ptr %1) #12
  ret void
}