; Function Attrs: cold nofree norecurse nosync nounwind optsize memory(write, argmem: none, inaccessiblemem: none) uwtable
define void @ff_dca_lbr_init_tables() local_unnamed_addr #0 {
  br label %1

1:                                                ; preds = %0, %1
  %indvars.iv = phi i64 [ 0, %0 ], [ %indvars.iv.next, %1 ]
  %2 = trunc nuw nsw i64 %indvars.iv to i32
  %3 = uitofp nneg i32 %2 to double
  %4 = fmul nsz double %3, 0x400921FB54442D18
  %5 = fmul nsz double %4, 7.812500e-03
  %6 = tail call nsz double @llvm.cos.f64(double %5)
  %7 = fptrunc nsz double %6 to float
  %8 = getelementptr inbounds nuw [256 x float], ptr @cos_tab, i64 0, i64 %indvars.iv
  store float %7, ptr %8, align 4, !tbaa !4
  %indvars.iv.next = add nuw nsw i64 %indvars.iv, 1
  %exitcond.not = icmp eq i64 %indvars.iv.next, 256
  br i1 %exitcond.not, label %9, label %1, !llvm.loop !8

9:                                                ; preds = %1
  ret void
}